target datalayout = "e-m:e-p270:32:32-p271:32:32-p272:64:64-i64:64-i128:128-f80:128-n8:16:32:64-S128"
target triple = "x86_64-pc-linux-gnu"

%struct.UParseError = type { i32, i32, [16 x i16], [16 x i16] }

; Function Attrs: inlinehint mustprogress nounwind uwtable
define internal noundef zeroext i16 @_ZL12toASCIILowerDs(i16 noundef zeroext %0) #1 {
  %2 = alloca i16, align 2
  %3 = alloca i16, align 2
  store i16 %0, ptr %3, align 2, !tbaa !20
  %4 = load i16, ptr %3, align 2, !tbaa !20
  %5 = zext i16 %4 to i32
  %6 = icmp sle i32 65, %5
  br i1 %6, label %7, label %16

7:                                                ; preds = %1
  %8 = load i16, ptr %3, align 2, !tbaa !20
  %9 = zext i16 %8 to i32
  %10 = icmp sle i32 %9, 90
  br i1 %10, label %11, label %16

11:                                               ; preds = %7
  %12 = load i16, ptr %3, align 2, !tbaa !20
  %13 = zext i16 %12 to i32
  %14 = add nsw i32 %13, 32
  %15 = trunc i32 %14 to i16
  store i16 %15, ptr %2, align 2
  br label %18

16:                                               ; preds = %7, %1
  %17 = load i16, ptr %3, align 2, !tbaa !20
  store i16 %17, ptr %2, align 2
  br label %18

18:                                               ; preds = %16, %11
  %19 = load i16, ptr %2, align 2
  ret i16 %19
}

; Function Attrs: inlinehint mustprogress nounwind uwtable
define internal noundef i32 @_ZL27compareCaseInsensitiveASCIIPKDsiS0_i(ptr noundef %0, i32 noundef %1, ptr noundef %2, i32 noundef %3) #1 {
  %5 = alloca i32, align 4
  %6 = alloca ptr, align 8
  %7 = alloca i32, align 4
  %8 = alloca ptr, align 8
  %9 = alloca i32, align 4
  %10 = alloca i32, align 4
  %11 = alloca i32, align 4
  %12 = alloca i16, align 2
  %13 = alloca i16, align 2
  %14 = alloca i32, align 4
  %15 = alloca i32, align 4
  %16 = alloca i32, align 4
  store ptr %0, ptr %6, align 8, !tbaa !3
  store i32 %1, ptr %7, align 4, !tbaa !8
  store ptr %2, ptr %8, align 8, !tbaa !3
  store i32 %3, ptr %9, align 4, !tbaa !8
  call void @llvm.lifetime.start.p0(i64 4, ptr %10) #6
  call void @llvm.lifetime.start.p0(i64 4, ptr %11) #6
  %17 = load i32, ptr %7, align 4, !tbaa !8
  %18 = load i32, ptr %9, align 4, !tbaa !8
  %19 = icmp ne i32 %17, %18
  br i1 %19, label %20, label %29

20:                                               ; preds = %4
  %21 = load i32, ptr %7, align 4, !tbaa !8
  %22 = load i32, ptr %9, align 4, !tbaa !8
  %23 = icmp slt i32 %21, %22
  br i1 %23, label %24, label %26

24:                                               ; preds = %20
  %25 = load i32, ptr %7, align 4, !tbaa !8
  store i32 %25, ptr %10, align 4, !tbaa !8
  store i32 -1, ptr %11, align 4, !tbaa !8
  br label %28

26:                                               ; preds = %20
  %27 = load i32, ptr %9, align 4, !tbaa !8
  store i32 %27, ptr %10, align 4, !tbaa !8
  store i32 1, ptr %11, align 4, !tbaa !8
  br label %28

28:                                               ; preds = %26, %24
  br label %31

29:                                               ; preds = %4
  %30 = load i32, ptr %7, align 4, !tbaa !8
  store i32 %30, ptr %10, align 4, !tbaa !8
  store i32 0, ptr %11, align 4, !tbaa !8
  br label %31

31:                                               ; preds = %29, %28
  call void @llvm.lifetime.start.p0(i64 2, ptr %12) #6
  call void @llvm.lifetime.start.p0(i64 2, ptr %13) #6
  call void @llvm.lifetime.start.p0(i64 4, ptr %14) #6
  call void @llvm.lifetime.start.p0(i64 4, ptr %15) #6
  store i32 0, ptr %15, align 4, !tbaa !8
  br label %32

32:                                               ; preds = %68, %31
  %33 = load i32, ptr %15, align 4, !tbaa !8
  %34 = load i32, ptr %10, align 4, !tbaa !8
  %35 = icmp eq i32 %33, %34
  br i1 %35, label %36, label %38

36:                                               ; preds = %32
  %37 = load i32, ptr %11, align 4, !tbaa !8
  store i32 %37, ptr %5, align 4
  store i32 1, ptr %16, align 4
  br label %71

38:                                               ; preds = %32
  %39 = load ptr, ptr %6, align 8, !tbaa !3
  %40 = load i32, ptr %15, align 4, !tbaa !8
  %41 = sext i32 %40 to i64
  %42 = getelementptr inbounds i16, ptr %39, i64 %41
  %43 = load i16, ptr %42, align 2, !tbaa !20
  store i16 %43, ptr %12, align 2, !tbaa !20
  %44 = load ptr, ptr %8, align 8, !tbaa !3
  %45 = load i32, ptr %15, align 4, !tbaa !8
  %46 = sext i32 %45 to i64
  %47 = getelementptr inbounds i16, ptr %44, i64 %46
  %48 = load i16, ptr %47, align 2, !tbaa !20
  store i16 %48, ptr %13, align 2, !tbaa !20
  %49 = load i16, ptr %12, align 2, !tbaa !20
  %50 = zext i16 %49 to i32
  %51 = load i16, ptr %13, align 2, !tbaa !20
  %52 = zext i16 %51 to i32
  %53 = icmp ne i32 %50, %52
  br i1 %53, label %54, label %67

54:                                               ; preds = %38
  %55 = load i16, ptr %12, align 2, !tbaa !20
  %56 = call noundef zeroext i16 @_ZL12toASCIILowerDs(i16 noundef zeroext %55)
  %57 = zext i16 %56 to i32
  %58 = load i16, ptr %13, align 2, !tbaa !20
  %59 = call noundef zeroext i16 @_ZL12toASCIILowerDs(i16 noundef zeroext %58)
  %60 = zext i16 %59 to i32
  %61 = sub nsw i32 %57, %60
  store i32 %61, ptr %14, align 4, !tbaa !8
  %62 = load i32, ptr %14, align 4, !tbaa !8
  %63 = icmp ne i32 %62, 0
  br i1 %63, label %64, label %66

64:                                               ; preds = %54
  %65 = load i32, ptr %14, align 4, !tbaa !8
  store i32 %65, ptr %11, align 4, !tbaa !8
  store i32 2, ptr %16, align 4
  br label %71

66:                                               ; preds = %54
  br label %67

67:                                               ; preds = %66, %38
  br label %68

68:                                               ; preds = %67
  %69 = load i32, ptr %15, align 4, !tbaa !8
  %70 = add nsw i32 %69, 1
  store i32 %70, ptr %15, align 4, !tbaa !8
  br label %32, !llvm.loop !34

71:                                               ; preds = %64, %36
  call void @llvm.lifetime.end.p0(i64 4, ptr %15) #6
  %72 = load i32, ptr %16, align 4
  switch i32 %72, label %75 [
    i32 2, label %73
  ]

73:                                               ; preds = %71
  %74 = load i32, ptr %11, align 4, !tbaa !8
  store i32 %74, ptr %5, align 4
  store i32 1, ptr %16, align 4
  br label %75

75:                                               ; preds = %73, %71
  call void @llvm.lifetime.end.p0(i64 4, ptr %14) #6
  call void @llvm.lifetime.end.p0(i64 2, ptr %13) #6
  call void @llvm.lifetime.end.p0(i64 2, ptr %12) #6
  call void @llvm.lifetime.end.p0(i64 4, ptr %11) #6
  call void @llvm.lifetime.end.p0(i64 4, ptr %10) #6
  %76 = load i32, ptr %5, align 4
  ret i32 %76
}

; Function Attrs: inlinehint mustprogress nounwind uwtable
define internal noundef signext i8 @_ZL9U_FAILURE10UErrorCode(i32 noundef %0) #1 {
  %2 = alloca i32, align 4
  store i32 %0, ptr %2, align 4, !tbaa !13
  %3 = load i32, ptr %2, align 4, !tbaa !13
  %4 = icmp sgt i32 %3, 0
  %5 = zext i1 %4 to i8
  ret i8 %5
}

; Function Attrs: mustprogress uwtable
define i32 @uidna_compare_77(ptr noundef %0, i32 noundef %1, ptr noundef %2, i32 noundef %3, i32 noundef %4, ptr noundef %5) #0 {
  %7 = alloca i32, align 4
  %8 = alloca ptr, align 8
  %9 = alloca i32, align 4
  %10 = alloca ptr, align 8
  %11 = alloca i32, align 4
  %12 = alloca i32, align 4
  %13 = alloca ptr, align 8
  %14 = alloca [256 x i16], align 16
  %15 = alloca [256 x i16], align 16
  %16 = alloca ptr, align 8
  %17 = alloca ptr, align 8
  %18 = alloca i32, align 4
  %19 = alloca i32, align 4
  %20 = alloca i32, align 4
  %21 = alloca i32, align 4
  %22 = alloca i32, align 4
  %23 = alloca %struct.UParseError, align 4
  store ptr %0, ptr %8, align 8, !tbaa !3
  store i32 %1, ptr %9, align 4, !tbaa !8
  store ptr %2, ptr %10, align 8, !tbaa !3
  store i32 %3, ptr %11, align 4, !tbaa !8
  store i32 %4, ptr %12, align 4, !tbaa !8
  store ptr %5, ptr %13, align 8, !tbaa !12
  %24 = load ptr, ptr %13, align 8, !tbaa !12
  %25 = icmp eq ptr %24, null
  br i1 %25, label %31, label %26

26:                                               ; preds = %6
  %27 = load ptr, ptr %13, align 8, !tbaa !12
  %28 = load i32, ptr %27, align 4, !tbaa !13
  %29 = call noundef signext i8 @_ZL9U_FAILURE10UErrorCode(i32 noundef %28)
  %30 = icmp ne i8 %29, 0
  br i1 %30, label %31, label %32

31:                                               ; preds = %26, %6
  store i32 -1, ptr %7, align 4
  br label %112

32:                                               ; preds = %26
  call void @llvm.lifetime.start.p0(i64 512, ptr %14) #6
  call void @llvm.lifetime.start.p0(i64 512, ptr %15) #6
  call void @llvm.lifetime.start.p0(i64 8, ptr %16) #6
  %33 = getelementptr inbounds [256 x i16], ptr %14, i64 0, i64 0
  store ptr %33, ptr %16, align 8, !tbaa !3
  call void @llvm.lifetime.start.p0(i64 8, ptr %17) #6
  %34 = getelementptr inbounds [256 x i16], ptr %15, i64 0, i64 0
  store ptr %34, ptr %17, align 8, !tbaa !3
  call void @llvm.lifetime.start.p0(i64 4, ptr %18) #6
  call void @llvm.lifetime.start.p0(i64 4, ptr %19) #6
  call void @llvm.lifetime.start.p0(i64 4, ptr %20) #6
  store i32 256, ptr %20, align 4, !tbaa !8
  call void @llvm.lifetime.start.p0(i64 4, ptr %21) #6
  store i32 256, ptr %21, align 4, !tbaa !8
  call void @llvm.lifetime.start.p0(i64 4, ptr %22) #6
  store i32 -1, ptr %22, align 4, !tbaa !8
  call void @llvm.lifetime.start.p0(i64 72, ptr %23) #6
  %35 = load ptr, ptr %8, align 8, !tbaa !3
  %36 = load i32, ptr %9, align 4, !tbaa !8
  %37 = load ptr, ptr %16, align 8, !tbaa !3
  %38 = load i32, ptr %20, align 4, !tbaa !8
  %39 = load i32, ptr %12, align 4, !tbaa !8
  %40 = load ptr, ptr %13, align 8, !tbaa !12
  %41 = call i32 @uidna_IDNToASCII_77(ptr noundef %35, i32 noundef %36, ptr noundef %37, i32 noundef %38, i32 noundef %39, ptr noundef %23, ptr noundef %40)
  store i32 %41, ptr %18, align 4, !tbaa !8
  %42 = load ptr, ptr %13, align 8, !tbaa !12
  %43 = load i32, ptr %42, align 4, !tbaa !13
  %44 = icmp eq i32 %43, 15
  br i1 %44, label %45, label %63

45:                                               ; preds = %32
  %46 = load i32, ptr %18, align 4, !tbaa !8
  %47 = mul nsw i32 %46, 2
  %48 = sext i32 %47 to i64
  %49 = call noalias ptr @uprv_malloc_77(i64 noundef %48) #7
  store ptr %49, ptr %16, align 8, !tbaa !3
  %50 = load ptr, ptr %16, align 8, !tbaa !3
  %51 = icmp eq ptr %50, null
  br i1 %51, label %52, label %54

52:                                               ; preds = %45
  %53 = load ptr, ptr %13, align 8, !tbaa !12
  store i32 7, ptr %53, align 4, !tbaa !13
  br label %98

54:                                               ; preds = %45
  %55 = load ptr, ptr %13, align 8, !tbaa !12
  store i32 0, ptr %55, align 4, !tbaa !13
  %56 = load ptr, ptr %8, align 8, !tbaa !3
  %57 = load i32, ptr %9, align 4, !tbaa !8
  %58 = load ptr, ptr %16, align 8, !tbaa !3
  %59 = load i32, ptr %18, align 4, !tbaa !8
  %60 = load i32, ptr %12, align 4, !tbaa !8
  %61 = load ptr, ptr %13, align 8, !tbaa !12
  %62 = call i32 @uidna_IDNToASCII_77(ptr noundef %56, i32 noundef %57, ptr noundef %58, i32 noundef %59, i32 noundef %60, ptr noundef %23, ptr noundef %61)
  store i32 %62, ptr %18, align 4, !tbaa !8
  br label %63

63:                                               ; preds = %54, %32
  %64 = load ptr, ptr %10, align 8, !tbaa !3
  %65 = load i32, ptr %11, align 4, !tbaa !8
  %66 = load ptr, ptr %17, align 8, !tbaa !3
  %67 = load i32, ptr %21, align 4, !tbaa !8
  %68 = load i32, ptr %12, align 4, !tbaa !8
  %69 = load ptr, ptr %13, align 8, !tbaa !12
  %70 = call i32 @uidna_IDNToASCII_77(ptr noundef %64, i32 noundef %65, ptr noundef %66, i32 noundef %67, i32 noundef %68, ptr noundef %23, ptr noundef %69)
  store i32 %70, ptr %19, align 4, !tbaa !8
  %71 = load ptr, ptr %13, align 8, !tbaa !12
  %72 = load i32, ptr %71, align 4, !tbaa !13
  %73 = icmp eq i32 %72, 15
  br i1 %73, label %74, label %92

74:                                               ; preds = %63
  %75 = load i32, ptr %19, align 4, !tbaa !8
  %76 = mul nsw i32 %75, 2
  %77 = sext i32 %76 to i64
  %78 = call noalias ptr @uprv_malloc_77(i64 noundef %77) #7
  store ptr %78, ptr %17, align 8, !tbaa !3
  %79 = load ptr, ptr %17, align 8, !tbaa !3
  %80 = icmp eq ptr %79, null
  br i1 %80, label %81, label %83

81:                                               ; preds = %74
  %82 = load ptr, ptr %13, align 8, !tbaa !12
  store i32 7, ptr %82, align 4, !tbaa !13
  br label %98

83:                                               ; preds = %74
  %84 = load ptr, ptr %13, align 8, !tbaa !12
  store i32 0, ptr %84, align 4, !tbaa !13
  %85 = load ptr, ptr %10, align 8, !tbaa !3
  %86 = load i32, ptr %11, align 4, !tbaa !8
  %87 = load ptr, ptr %17, align 8, !tbaa !3
  %88 = load i32, ptr %19, align 4, !tbaa !8
  %89 = load i32, ptr %12, align 4, !tbaa !8
  %90 = load ptr, ptr %13, align 8, !tbaa !12
  %91 = call i32 @uidna_IDNToASCII_77(ptr noundef %85, i32 noundef %86, ptr noundef %87, i32 noundef %88, i32 noundef %89, ptr noundef %23, ptr noundef %90)
  store i32 %91, ptr %19, align 4, !tbaa !8
  br label %92

92:                                               ; preds = %83, %63
  %93 = load ptr, ptr %16, align 8, !tbaa !3
  %94 = load i32, ptr %18, align 4, !tbaa !8
  %95 = load ptr, ptr %17, align 8, !tbaa !3
  %96 = load i32, ptr %19, align 4, !tbaa !8
  %97 = call noundef i32 @_ZL27compareCaseInsensitiveASCIIPKDsiS0_i(ptr noundef %93, i32 noundef %94, ptr noundef %95, i32 noundef %96)
  store i32 %97, ptr %22, align 4, !tbaa !8
  br label %98

98:                                               ; preds = %92, %81, %52
  %99 = load ptr, ptr %16, align 8, !tbaa !3
  %100 = getelementptr inbounds [256 x i16], ptr %14, i64 0, i64 0
  %101 = icmp ne ptr %99, %100
  br i1 %101, label %102, label %104

102:                                              ; preds = %98
  %103 = load ptr, ptr %16, align 8, !tbaa !3
  call void @uprv_free_77(ptr noundef %103)
  br label %104

104:                                              ; preds = %102, %98
  %105 = load ptr, ptr %17, align 8, !tbaa !3
  %106 = getelementptr inbounds [256 x i16], ptr %15, i64 0, i64 0
  %107 = icmp ne ptr %105, %106
  br i1 %107, label %108, label %110

108:                                              ; preds = %104
  %109 = load ptr, ptr %17, align 8, !tbaa !3
  call void @uprv_free_77(ptr noundef %109)
  br label %110

110:                                              ; preds = %108, %104
  %111 = load i32, ptr %22, align 4, !tbaa !8
  store i32 %111, ptr %7, align 4
  call void @llvm.lifetime.end.p0(i64 72, ptr %23) #6
  call void @llvm.lifetime.end.p0(i64 4, ptr %22) #6
  call void @llvm.lifetime.end.p0(i64 4, ptr %21) #6
  call void @llvm.lifetime.end.p0(i64 4, ptr %20) #6
  call void @llvm.lifetime.end.p0(i64 4, ptr %19) #6
  call void @llvm.lifetime.end.p0(i64 4, ptr %18) #6
  call void @llvm.lifetime.end.p0(i64 8, ptr %17) #6
  call void @llvm.lifetime.end.p0(i64 8, ptr %16) #6
  call void @llvm.lifetime.end.p0(i64 512, ptr %15) #6
  call void @llvm.lifetime.end.p0(i64 512, ptr %14) #6
  br label %112

112:                                              ; preds = %110, %31
  %113 = load i32, ptr %7, align 4
  ret i32 %113
}