; Function Attrs: mustprogress uwtable
define i32 @uidna_compare_77(ptr noundef %0, i32 noundef %1, ptr noundef %2, i32 noundef %3, i32 noundef %4, ptr noundef %5) local_unnamed_addr #0 {
  %7 = alloca [256 x i16], align 16
  %8 = alloca [256 x i16], align 16
  %9 = alloca %struct.UParseError, align 4
  %10 = icmp eq ptr %5, null
  br i1 %10, label %56, label %11

11:                                               ; preds = %6
  %12 = load i32, ptr %5, align 4, !tbaa !3
  %13 = icmp slt i32 %12, 1
  br i1 %13, label %14, label %56

14:                                               ; preds = %11
  call void @llvm.lifetime.start.p0(i64 512, ptr nonnull %7) #6
  call void @llvm.lifetime.start.p0(i64 512, ptr nonnull %8) #6
  call void @llvm.lifetime.start.p0(i64 72, ptr nonnull %9) #6
  %15 = call i32 @uidna_IDNToASCII_77(ptr noundef %0, i32 noundef %1, ptr noundef nonnull %7, i32 noundef 256, i32 noundef %4, ptr noundef nonnull %9, ptr noundef nonnull %5)
  %16 = load i32, ptr %5, align 4, !tbaa !3
  %17 = icmp eq i32 %16, 15
  br i1 %17, label %18, label %25

18:                                               ; preds = %14
  %19 = shl nsw i32 %15, 1
  %20 = sext i32 %19 to i64
  %21 = call noalias ptr @uprv_malloc_77(i64 noundef %20) #7
  %22 = icmp eq ptr %21, null
  br i1 %22, label %_ZL27compareCaseInsensitiveASCIIPKDsiS0_i.exit.thread, label %23

_ZL27compareCaseInsensitiveASCIIPKDsiS0_i.exit.thread: ; preds = %18
  store i32 7, ptr %5, align 4, !tbaa !3
  br label %52

23:                                               ; preds = %18
  store i32 0, ptr %5, align 4, !tbaa !3
  %24 = call i32 @uidna_IDNToASCII_77(ptr noundef %0, i32 noundef %1, ptr noundef nonnull %21, i32 noundef %15, i32 noundef %4, ptr noundef nonnull %9, ptr noundef nonnull %5)
  br label %25

25:                                               ; preds = %23, %14
  %.048 = phi i32 [ %24, %23 ], [ %15, %14 ]
  %.046 = phi ptr [ %21, %23 ], [ %7, %14 ]
  %26 = call i32 @uidna_IDNToASCII_77(ptr noundef %2, i32 noundef %3, ptr noundef nonnull %8, i32 noundef 256, i32 noundef %4, ptr noundef nonnull %9, ptr noundef nonnull %5)
  %27 = load i32, ptr %5, align 4, !tbaa !3
  %28 = icmp eq i32 %27, 15
  br i1 %28, label %29, label %37

29:                                               ; preds = %25
  %30 = shl nsw i32 %26, 1
  %31 = sext i32 %30 to i64
  %32 = call noalias ptr @uprv_malloc_77(i64 noundef %31) #7
  %33 = icmp eq ptr %32, null
  br i1 %33, label %34, label %35

34:                                               ; preds = %29
  store i32 7, ptr %5, align 4, !tbaa !3
  br label %_ZL27compareCaseInsensitiveASCIIPKDsiS0_i.exit

35:                                               ; preds = %29
  store i32 0, ptr %5, align 4, !tbaa !3
  %36 = call i32 @uidna_IDNToASCII_77(ptr noundef %2, i32 noundef %3, ptr noundef nonnull %32, i32 noundef %26, i32 noundef %4, ptr noundef nonnull %9, ptr noundef nonnull %5)
  br label %37

37:                                               ; preds = %35, %25
  %.150 = phi ptr [ %32, %35 ], [ %8, %25 ]
  %.047 = phi i32 [ %36, %35 ], [ %26, %25 ]
  %.34.i = call i32 @llvm.smin.i32(i32 %.048, i32 %.047)
  %.026.i = call i32 @llvm.scmp.i32.i32(i32 %.048, i32 %.047)
  %.not3337.i = icmp eq i32 %.34.i, 0
  br i1 %.not3337.i, label %_ZL27compareCaseInsensitiveASCIIPKDsiS0_i.exit, label %.lr.ph.preheader.i

.lr.ph.preheader.i:                               ; preds = %37
  %38 = zext i32 %.34.i to i64
  br label %.lr.ph.i

.lr.ph.i:                                         ; preds = %51, %.lr.ph.preheader.i
  %indvars.iv.i = phi i64 [ 0, %.lr.ph.preheader.i ], [ %indvars.iv.next.i, %51 ]
  %39 = getelementptr inbounds nuw i16, ptr %.046, i64 %indvars.iv.i
  %40 = load i16, ptr %39, align 2, !tbaa !7
  %41 = getelementptr inbounds nuw i16, ptr %.150, i64 %indvars.iv.i
  %42 = load i16, ptr %41, align 2, !tbaa !7
  %.not31.i = icmp eq i16 %40, %42
  br i1 %.not31.i, label %51, label %43

43:                                               ; preds = %.lr.ph.i
  %44 = add i16 %40, -65
  %or.cond.i.i = icmp ult i16 %44, 26
  %45 = or disjoint i16 %40, 32
  %.0.i.i = select i1 %or.cond.i.i, i16 %45, i16 %40
  %46 = zext i16 %.0.i.i to i32
  %47 = add i16 %42, -65
  %or.cond.i35.i = icmp ult i16 %47, 26
  %48 = or disjoint i16 %42, 32
  %.0.i36.i = select i1 %or.cond.i35.i, i16 %48, i16 %42
  %49 = zext i16 %.0.i36.i to i32
  %50 = sub nsw i32 %46, %49
  %.not32.i = icmp eq i32 %50, 0
  br i1 %.not32.i, label %51, label %_ZL27compareCaseInsensitiveASCIIPKDsiS0_i.exit

51:                                               ; preds = %43, %.lr.ph.i
  %indvars.iv.next.i = add nuw nsw i64 %indvars.iv.i, 1
  %.not33.i = icmp eq i64 %indvars.iv.next.i, %38
  br i1 %.not33.i, label %_ZL27compareCaseInsensitiveASCIIPKDsiS0_i.exit, label %.lr.ph.i, !llvm.loop !15

_ZL27compareCaseInsensitiveASCIIPKDsiS0_i.exit:   ; preds = %51, %43, %37, %34
  %.049 = phi ptr [ null, %34 ], [ %.150, %37 ], [ %.150, %43 ], [ %.150, %51 ]
  %.0 = phi i32 [ -1, %34 ], [ %.026.i, %37 ], [ %.026.i, %51 ], [ %50, %43 ]
  %.not56 = icmp eq ptr %.046, %7
  br i1 %.not56, label %53, label %52

52:                                               ; preds = %_ZL27compareCaseInsensitiveASCIIPKDsiS0_i.exit.thread, %_ZL27compareCaseInsensitiveASCIIPKDsiS0_i.exit
  %.065 = phi i32 [ -1, %_ZL27compareCaseInsensitiveASCIIPKDsiS0_i.exit.thread ], [ %.0, %_ZL27compareCaseInsensitiveASCIIPKDsiS0_i.exit ]
  %.164 = phi ptr [ null, %_ZL27compareCaseInsensitiveASCIIPKDsiS0_i.exit.thread ], [ %.046, %_ZL27compareCaseInsensitiveASCIIPKDsiS0_i.exit ]
  %.04962 = phi ptr [ %8, %_ZL27compareCaseInsensitiveASCIIPKDsiS0_i.exit.thread ], [ %.049, %_ZL27compareCaseInsensitiveASCIIPKDsiS0_i.exit ]
  call void @uprv_free_77(ptr noundef %.164)
  br label %53

53:                                               ; preds = %52, %_ZL27compareCaseInsensitiveASCIIPKDsiS0_i.exit
  %.066 = phi i32 [ %.065, %52 ], [ %.0, %_ZL27compareCaseInsensitiveASCIIPKDsiS0_i.exit ]
  %.04963 = phi ptr [ %.04962, %52 ], [ %.049, %_ZL27compareCaseInsensitiveASCIIPKDsiS0_i.exit ]
  %.not57 = icmp eq ptr %.04963, %8
  br i1 %.not57, label %55, label %54

54:                                               ; preds = %53
  call void @uprv_free_77(ptr noundef %.04963)
  br label %55

55:                                               ; preds = %54, %53
  call void @llvm.lifetime.end.p0(i64 72, ptr nonnull %9) #6
  call void @llvm.lifetime.end.p0(i64 512, ptr nonnull %8) #6
  call void @llvm.lifetime.end.p0(i64 512, ptr nonnull %7) #6
  br label %56

56:                                               ; preds = %6, %11, %55
  %.045 = phi i32 [ %.066, %55 ], [ -1, %11 ], [ -1, %6 ]
  ret i32 %.045
}